#include <math.h>
#include <stdio.h>
#include <stdlib.h>
#include <string.h>

int main()
{
    int i,j=0,p=0;
    char a[50][50];
   for(i=0;i<50;i++){
   for(j=0;j<50;j++)
   {scanf("%c",&a[i][j]);
   if(a[i][j]==' '||a[i][j]=='\n') break;}
   if(a[i][j]==' ') a[i][j]='\0';
   if(a[i][j]=='\n') {a[i][j]='\0';break;}
}
   printf("%s",a[i]);
   for(p=i-1;p>=0;p--)
   printf(" %s",a[p]);
   return 0;
}
   
    
   
    
